target datalayout = "e-m:e-p270:32:32-p271:32:32-p272:64:64-i64:64-i128:128-f80:128-n8:16:32:64-S128"
target triple = "x86_64-pc-linux-gnu"

%struct.jpeg_decompress_struct = type { ptr, ptr, ptr, ptr, i32, i32, ptr, i32, i32, i32, i32, i32, i32, i32, double, i32, i32, i32, i32, i32, i32, i32, i32, i32, i32, i32, i32, i32, i32, i32, i32, i32, i32, ptr, i32, i32, i32, i32, i32, ptr, [4 x ptr], [4 x ptr], [4 x ptr], i32, ptr, i32, i32, [16 x i8], [16 x i8], [16 x i8], i32, i32, i8, i8, i8, i16, i16, i32, i8, i32, ptr, i32, i32, i32, i32, ptr, i32, [4 x ptr], i32, i32, i32, [10 x i32], i32, i32, i32, i32, i32, ptr, ptr, ptr, ptr, ptr, ptr, ptr, ptr, ptr, ptr, ptr }
%struct.jpeg_component_info = type { i32, i32, i32, i32, i32, i32, i32, i32, i32, i32, i32, i32, i32, i32, i32, i32, i32, i32, i32, ptr, ptr }

; Function Attrs: nounwind uwtable
define hidden void @jRD1x1(ptr noundef %0, ptr noundef %1, ptr noundef %2, ptr noundef %3, i32 noundef %4) #0 {
  %6 = alloca ptr, align 8
  %7 = alloca ptr, align 8
  %8 = alloca ptr, align 8
  %9 = alloca ptr, align 8
  %10 = alloca i32, align 4
  %11 = alloca i32, align 4
  %12 = alloca ptr, align 8
  %13 = alloca ptr, align 8
  store ptr %0, ptr %6, align 8
  store ptr %1, ptr %7, align 8
  store ptr %2, ptr %8, align 8
  store ptr %3, ptr %9, align 8
  store i32 %4, ptr %10, align 4
  %14 = load ptr, ptr %6, align 8
  %15 = getelementptr inbounds %struct.jpeg_decompress_struct, ptr %14, i32 0, i32 65
  %16 = load ptr, ptr %15, align 8
  %17 = getelementptr inbounds i8, ptr %16, i64 128
  store ptr %17, ptr %13, align 8
  %18 = load ptr, ptr %7, align 8
  %19 = getelementptr inbounds %struct.jpeg_component_info, ptr %18, i32 0, i32 20
  %20 = load ptr, ptr %19, align 8
  store ptr %20, ptr %12, align 8
  %21 = load ptr, ptr %8, align 8
  %22 = getelementptr inbounds i16, ptr %21, i64 0
  %23 = load i16, ptr %22, align 2
  %24 = sext i16 %23 to i32
  %25 = load ptr, ptr %12, align 8
  %26 = getelementptr inbounds i32, ptr %25, i64 0
  %27 = load i32, ptr %26, align 4
  %28 = mul nsw i32 %24, %27
  store i32 %28, ptr %11, align 4
  %29 = load i32, ptr %11, align 4
  %30 = add nsw i32 %29, 4
  %31 = ashr i32 %30, 3
  store i32 %31, ptr %11, align 4
  %32 = load ptr, ptr %13, align 8
  %33 = load i32, ptr %11, align 4
  %34 = and i32 %33, 1023
  %35 = sext i32 %34 to i64
  %36 = getelementptr inbounds i8, ptr %32, i64 %35
  %37 = load i8, ptr %36, align 1
  %38 = load ptr, ptr %9, align 8
  %39 = getelementptr inbounds ptr, ptr %38, i64 0
  %40 = load ptr, ptr %39, align 8
  %41 = load i32, ptr %10, align 4
  %42 = zext i32 %41 to i64
  %43 = getelementptr inbounds i8, ptr %40, i64 %42
  store i8 %37, ptr %43, align 1
  ret void
}