; Function Attrs: mustprogress nofree norecurse nosync nounwind willreturn memory(readwrite, inaccessiblemem: none) uwtable
define hidden void @jRD1x1(ptr nocapture noundef readonly %0, ptr nocapture noundef readonly %1, ptr nocapture noundef readonly %2, ptr nocapture noundef readonly %3, i32 noundef %4) local_unnamed_addr #1 {
  %6 = getelementptr inbounds i8, ptr %0, i64 424
  %7 = load ptr, ptr %6, align 8
  %8 = getelementptr inbounds i8, ptr %7, i64 128
  %9 = getelementptr inbounds i8, ptr %1, i64 88
  %10 = load ptr, ptr %9, align 8
  %11 = load i16, ptr %2, align 2
  %12 = zext i16 %11 to i32
  %13 = load i32, ptr %10, align 4
  %14 = mul i32 %13, %12
  %15 = add i32 %14, 4
  %16 = lshr i32 %15, 3
  %17 = and i32 %16, 1023
  %18 = zext nneg i32 %17 to i64
  %19 = getelementptr inbounds i8, ptr %8, i64 %18
  %20 = load i8, ptr %19, align 1
  %21 = load ptr, ptr %3, align 8
  %22 = zext i32 %4 to i64
  %23 = getelementptr inbounds i8, ptr %21, i64 %22
  store i8 %20, ptr %23, align 1
  ret void
}